target datalayout = "e-m:e-p270:32:32-p271:32:32-p272:64:64-i64:64-i128:128-f80:128-n8:16:32:64-S128"
target triple = "x86_64-pc-linux-gnu"

%struct._packet_info = type { ptr, ptr, i32, i32, %struct.nstime_t, %struct.nstime_t, %struct.nstime_t, i8, ptr, ptr, ptr, ptr, %struct._address, %struct._address, %struct._address, %struct._address, %struct._address, %struct._address, i32, ptr, i8, [3 x i8], %struct.anon, i32, i32, i32, i32, ptr, i8, ptr, ptr, i16, i16, i32, i32, i16, i32, i32, ptr, ptr, ptr, i8, i8, i16, i16, i16, i32, i16, i16, ptr, ptr, ptr, ptr, ptr, i32, i32 }
%struct.nstime_t = type { i64, i32 }
%struct._address = type { i32, i32, ptr, ptr }
%struct.anon = type { i8, [3 x i8] }

@.str.2237 = private unnamed_addr constant [7 x i8] c"object\00", align 1
@.str.2238 = private unnamed_addr constant [13 x i8] c", FH: 0x%08x\00", align 1
@.str.2360 = private unnamed_addr constant [27 x i8] c", PATHCONF Call DH: 0x%08x\00", align 1

; Function Attrs: null_pointer_is_valid sspstrong uwtable
define internal i32 @dissect_nfs3_pathconf_call(ptr noundef %0, ptr noundef %1, ptr noundef %2, ptr noundef %3) #0 {
  %5 = alloca ptr, align 8
  %6 = alloca ptr, align 8
  %7 = alloca ptr, align 8
  %8 = alloca ptr, align 8
  %9 = alloca i32, align 4
  %10 = alloca i32, align 4
  store ptr %0, ptr %5, align 8
  store ptr %1, ptr %6, align 8
  store ptr %2, ptr %7, align 8
  store ptr %3, ptr %8, align 8
  call void @llvm.lifetime.start.p0(i64 4, ptr %9) #16
  store i32 0, ptr %9, align 4
  call void @llvm.lifetime.start.p0(i64 4, ptr %10) #16
  store i32 0, ptr %10, align 4
  %11 = load ptr, ptr %5, align 8
  %12 = load i32, ptr %10, align 4
  %13 = load ptr, ptr %6, align 8
  %14 = load ptr, ptr %7, align 8
  %15 = load ptr, ptr %8, align 8
  %16 = call i32 @dissect_nfs3_fh(ptr noundef %11, i32 noundef %12, ptr noundef %13, ptr noundef %14, ptr noundef @.str.2237, ptr noundef %9, ptr noundef %15)
  store i32 %16, ptr %10, align 4
  %17 = load ptr, ptr %6, align 8
  %18 = getelementptr inbounds nuw %struct._packet_info, ptr %17, i32 0, i32 1
  %19 = load ptr, ptr %18, align 8
  %20 = load i32, ptr %9, align 4
  call void (ptr, i32, ptr, ...) @col_append_fstr(ptr noundef %19, i32 noundef 25, ptr noundef @.str.2238, i32 noundef %20)
  %21 = load ptr, ptr %7, align 8
  %22 = load i32, ptr %9, align 4
  call void (ptr, ptr, ...) @proto_item_append_text(ptr noundef %21, ptr noundef @.str.2360, i32 noundef %22)
  %23 = load i32, ptr %10, align 4
  call void @llvm.lifetime.end.p0(i64 4, ptr %10) #16
  call void @llvm.lifetime.end.p0(i64 4, ptr %9) #16
  ret i32 %23
}